; Function Attrs: null_pointer_is_valid sspstrong uwtable
define internal noundef i32 @dissect_aim_tlv_value_string(ptr noundef %0, i16 zeroext %1, ptr noundef %2, ptr noundef readonly captures(none) %3) #0 {
  %5 = tail call i32 @tvb_reported_length(ptr noundef %2)
  %6 = getelementptr inbounds nuw i8, ptr %3, i64 408
  %7 = load ptr, ptr %6, align 8
  %8 = tail call ptr @tvb_get_string_enc(ptr noundef %7, ptr noundef %2, i32 noundef 0, i32 noundef %5, i32 noundef 2)
  %9 = load ptr, ptr %6, align 8
  %10 = sext i32 %5 to i64
  %11 = tail call ptr @format_text(ptr noundef %9, ptr noundef %8, i64 noundef %10)
  tail call void (ptr, ptr, ...) @proto_item_set_text(ptr noundef %0, ptr noundef nonnull @.str.590, ptr noundef %11)
  ret i32 %5
}